; Function Attrs: mustprogress nofree norecurse nosync nounwind willreturn memory(read, inaccessiblemem: none) uwtable
define hidden noundef ptr @_ZNK9MultiNode16proj_out_or_nullEjb(ptr nocapture noundef nonnull readonly align 8 dereferenceable(52) %0, i32 noundef %1, i1 noundef zeroext %2) local_unnamed_addr #3 align 2 {
  %4 = getelementptr inbounds i8, ptr %0, i64 16
  %5 = load ptr, ptr %4, align 8
  %6 = getelementptr inbounds i8, ptr %0, i64 32
  %7 = load i32, ptr %6, align 8
  %8 = zext i32 %7 to i64
  %9 = getelementptr inbounds ptr, ptr %5, i64 %8
  %.not16 = icmp eq i32 %7, 0
  br i1 %.not16, label %._crit_edge, label %.lr.ph

.lr.ph:                                           ; preds = %3, %24
  %.01013 = phi ptr [ %25, %24 ], [ %5, %3 ]
  %10 = load ptr, ptr %.01013, align 8
  %11 = getelementptr inbounds i8, ptr %10, i64 44
  %12 = load i32, ptr %11, align 4
  %13 = and i32 %12, 15
  %14 = icmp ne i32 %13, 8
  %.not12 = icmp eq ptr %10, null
  %.not = or i1 %.not12, %14
  br i1 %.not, label %24, label %15

15:                                               ; preds = %.lr.ph
  %16 = getelementptr inbounds i8, ptr %10, i64 52
  %17 = load i32, ptr %16, align 4
  %18 = icmp eq i32 %17, %1
  br i1 %18, label %19, label %24

19:                                               ; preds = %15
  %20 = getelementptr inbounds i8, ptr %10, i64 56
  %21 = load i8, ptr %20, align 8
  %22 = trunc i8 %21 to i1
  %23 = xor i1 %22, %2
  br i1 %23, label %24, label %._crit_edge

24:                                               ; preds = %.lr.ph, %15, %19
  %25 = getelementptr inbounds i8, ptr %.01013, i64 8
  %26 = icmp ult ptr %25, %9
  br i1 %26, label %.lr.ph, label %._crit_edge, !llvm.loop !8

._crit_edge:                                      ; preds = %19, %24, %3
  %.0 = phi ptr [ null, %3 ], [ null, %24 ], [ %10, %19 ]
  ret ptr %.0
}